; Function Attrs: nounwind uwtable
define internal fastcc void @call_handler(ptr noundef %0, i64 %1, i64 %2) unnamed_addr #0 {
  %4 = trunc i64 %2 to i32
  %5 = icmp ugt i32 %4, -12
  br i1 %5, label %7, label %JS_DupValue.exit

JS_DupValue.exit:                                 ; preds = %3
  %6 = tail call { i64, i64 } @JS_Call(ptr noundef %0, i64 %1, i64 %2, i64 0, i64 3, i32 noundef 0, ptr noundef null) #29
  br label %JS_FreeValue.exit

7:                                                ; preds = %3
  %8 = inttoptr i64 %1 to ptr
  %9 = load i32, ptr %8, align 4
  %10 = add i32 %9, 1
  store i32 %10, ptr %8, align 4
  %11 = tail call { i64, i64 } @JS_Call(ptr noundef %0, i64 %1, i64 %2, i64 0, i64 3, i32 noundef 0, ptr noundef null) #29
  %12 = load i32, ptr %8, align 4
  %13 = add i32 %12, -1
  store i32 %13, ptr %8, align 4
  %14 = icmp slt i32 %13, 1
  br i1 %14, label %15, label %JS_FreeValue.exit

15:                                               ; preds = %7
  tail call void @__JS_FreeValue(ptr noundef %0, i64 %1, i64 %2) #29
  br label %JS_FreeValue.exit

JS_FreeValue.exit:                                ; preds = %JS_DupValue.exit, %7, %15
  %.pn = phi { i64, i64 } [ %6, %JS_DupValue.exit ], [ %11, %7 ], [ %11, %15 ]
  %16 = extractvalue { i64, i64 } %.pn, 0
  %17 = extractvalue { i64, i64 } %.pn, 1
  %18 = and i64 %17, 4294967295
  %.not = icmp eq i64 %18, 6
  br i1 %.not, label %19, label %js_std_dump_error.exit

19:                                               ; preds = %JS_FreeValue.exit
  %20 = tail call { i64, i64 } @JS_GetException(ptr noundef %0) #29
  %21 = extractvalue { i64, i64 } %20, 0
  %22 = extractvalue { i64, i64 } %20, 1
  tail call fastcc void @js_std_dump_error1(ptr noundef %0, i64 %21, i64 %22)
  %23 = trunc i64 %22 to i32
  %24 = icmp ugt i32 %23, -12
  br i1 %24, label %25, label %js_std_dump_error.exit

25:                                               ; preds = %19
  %26 = inttoptr i64 %21 to ptr
  %27 = load i32, ptr %26, align 4
  %28 = add i32 %27, -1
  store i32 %28, ptr %26, align 4
  %29 = icmp slt i32 %28, 1
  br i1 %29, label %30, label %js_std_dump_error.exit

30:                                               ; preds = %25
  tail call void @__JS_FreeValue(ptr noundef %0, i64 %21, i64 %22) #29
  br label %js_std_dump_error.exit

js_std_dump_error.exit:                           ; preds = %30, %25, %19, %JS_FreeValue.exit
  %31 = trunc i64 %17 to i32
  %32 = icmp ugt i32 %31, -12
  br i1 %32, label %33, label %JS_FreeValue.exit18

33:                                               ; preds = %js_std_dump_error.exit
  %34 = inttoptr i64 %16 to ptr
  %35 = load i32, ptr %34, align 4
  %36 = add i32 %35, -1
  store i32 %36, ptr %34, align 4
  %37 = icmp slt i32 %36, 1
  br i1 %37, label %38, label %JS_FreeValue.exit18

38:                                               ; preds = %33
  tail call void @__JS_FreeValue(ptr noundef %0, i64 %16, i64 %17) #29
  br label %JS_FreeValue.exit18

JS_FreeValue.exit18:                              ; preds = %js_std_dump_error.exit, %33, %38
  ret void
}